target datalayout = "e-m:e-p270:32:32-p271:32:32-p272:64:64-i64:64-i128:128-f80:128-n8:16:32:64-S128"
target triple = "x86_64-pc-linux-gnu"

%struct.H5B2_t = type { ptr, ptr }
%struct.H5B2_hdr_t = type { %struct.H5C_cache_entry_t, %struct.H5B2_node_ptr_t, i8, i8, i32, i32, i16, i8, ptr, i64, i64, i64, i64, i8, i8, i8, ptr, ptr, ptr, ptr, ptr, ptr, ptr, i8, ptr, ptr, i64, ptr, ptr }
%struct.H5C_cache_entry_t = type { ptr, i64, i64, ptr, i8, ptr, i8, i8, i8, i8, i32, i8, i8, i8, i8, i8, i32, ptr, i32, i32, i32, i32, i32, i8, i8, ptr, ptr, ptr, ptr, ptr, ptr, i8, i32, i8, i64, ptr, i64, i64, i32, i8, i32, i32, i8, ptr, ptr, ptr }
%struct.H5B2_node_ptr_t = type { i64, i16, i64 }

@H5B2_init_g = global i8 0, align 1
@H5_libterm_g = external global i8, align 1
@.str = private unnamed_addr constant [98 x i8] c"generated/home/dtcxzyw/WorkSpace/Projects/compilers/llvm-opt-benchmark/bench/hdf5/hdf5/src/H5B2.c\00", align 1
@H5E_BTREE_g = external global i64, align 8
@H5E_CANTINIT_g = external global i64, align 8
@H5E_CANTINSERT_g = external global i64, align 8
@.str.9 = private unnamed_addr constant [36 x i8] c"unable to insert record into B-tree\00", align 1
@__func__.H5B2_update = private unnamed_addr constant [12 x i8] c"H5B2_update\00", align 1
@.str.10 = private unnamed_addr constant [27 x i8] c"unable to create root node\00", align 1
@H5E_CANTUPDATE_g = external global i64, align 8
@.str.11 = private unnamed_addr constant [48 x i8] c"unable to update record in B-tree internal node\00", align 1
@.str.12 = private unnamed_addr constant [44 x i8] c"unable to update record in B-tree leaf node\00", align 1
@H5E_CANTMARKDIRTY_g = external global i64, align 8
@.str.13 = private unnamed_addr constant [35 x i8] c"unable to mark B-tree header dirty\00", align 1

; Function Attrs: nounwind uwtable
define i32 @H5B2_update(ptr noundef %0, ptr noundef %1, ptr noundef %2, ptr noundef %3) #0 {
  %5 = alloca ptr, align 8
  %6 = alloca ptr, align 8
  %7 = alloca ptr, align 8
  %8 = alloca ptr, align 8
  %9 = alloca ptr, align 8
  %10 = alloca i32, align 4
  %11 = alloca i32, align 4
  %12 = alloca i8, align 1
  store ptr %0, ptr %5, align 8, !tbaa !11
  store ptr %1, ptr %6, align 8, !tbaa !10
  store ptr %2, ptr %7, align 8, !tbaa !10
  store ptr %3, ptr %8, align 8, !tbaa !10
  call void @llvm.lifetime.start.p0(i64 8, ptr %9) #6
  call void @llvm.lifetime.start.p0(i64 4, ptr %10) #6
  store i32 0, ptr %10, align 4, !tbaa !24
  call void @llvm.lifetime.start.p0(i64 4, ptr %11) #6
  store i32 0, ptr %11, align 4, !tbaa !24
  call void @llvm.lifetime.start.p0(i64 1, ptr %12) #6
  store i8 0, ptr %12, align 1, !tbaa !15
  %13 = load i8, ptr @H5B2_init_g, align 1, !tbaa !15, !range !17, !noundef !18
  %14 = trunc i8 %13 to i1
  br i1 %14, label %19, label %15

15:                                               ; preds = %4
  %16 = load i8, ptr @H5_libterm_g, align 1, !tbaa !15, !range !17, !noundef !18
  %17 = trunc i8 %16 to i1
  %18 = xor i1 %17, true
  br label %19

19:                                               ; preds = %15, %4
  %20 = phi i1 [ false, %4 ], [ %18, %15 ]
  %21 = xor i1 %20, true
  %22 = xor i1 %21, true
  %23 = zext i1 %22 to i32
  %24 = sext i32 %23 to i64
  %25 = call i64 @llvm.expect.i64(i64 %24, i64 0)
  %26 = icmp ne i64 %25, 0
  br i1 %26, label %27, label %28

27:                                               ; preds = %19
  store i8 1, ptr @H5B2_init_g, align 1, !tbaa !15
  br label %28

28:                                               ; preds = %27, %19
  %29 = load i8, ptr @H5B2_init_g, align 1, !tbaa !15, !range !17, !noundef !18
  %30 = trunc i8 %29 to i1
  br i1 %30, label %35, label %31

31:                                               ; preds = %28
  %32 = load i8, ptr @H5_libterm_g, align 1, !tbaa !15, !range !17, !noundef !18
  %33 = trunc i8 %32 to i1
  %34 = xor i1 %33, true
  br label %35

35:                                               ; preds = %31, %28
  %36 = phi i1 [ true, %28 ], [ %34, %31 ]
  %37 = xor i1 %36, true
  %38 = xor i1 %37, true
  %39 = zext i1 %38 to i32
  %40 = sext i32 %39 to i64
  %41 = call i64 @llvm.expect.i64(i64 %40, i64 1)
  %42 = icmp ne i64 %41, 0
  br i1 %42, label %43, label %217

43:                                               ; preds = %35
  %44 = load ptr, ptr %5, align 8, !tbaa !11
  %45 = getelementptr inbounds nuw %struct.H5B2_t, ptr %44, i32 0, i32 1
  %46 = load ptr, ptr %45, align 8, !tbaa !23
  %47 = load ptr, ptr %5, align 8, !tbaa !11
  %48 = getelementptr inbounds nuw %struct.H5B2_t, ptr %47, i32 0, i32 0
  %49 = load ptr, ptr %48, align 8, !tbaa !21
  %50 = getelementptr inbounds nuw %struct.H5B2_hdr_t, ptr %49, i32 0, i32 8
  store ptr %46, ptr %50, align 8, !tbaa !26
  %51 = load ptr, ptr %5, align 8, !tbaa !11
  %52 = getelementptr inbounds nuw %struct.H5B2_t, ptr %51, i32 0, i32 0
  %53 = load ptr, ptr %52, align 8, !tbaa !21
  store ptr %53, ptr %9, align 8, !tbaa !13
  %54 = load ptr, ptr %9, align 8, !tbaa !13
  %55 = getelementptr inbounds nuw %struct.H5B2_hdr_t, ptr %54, i32 0, i32 1
  %56 = getelementptr inbounds nuw %struct.H5B2_node_ptr_t, ptr %55, i32 0, i32 0
  %57 = load i64, ptr %56, align 8, !tbaa !42
  %58 = icmp ne i64 %57, -1
  br i1 %58, label %86, label %59

59:                                               ; preds = %43
  %60 = load ptr, ptr %9, align 8, !tbaa !13
  %61 = load ptr, ptr %9, align 8, !tbaa !13
  %62 = load ptr, ptr %9, align 8, !tbaa !13
  %63 = getelementptr inbounds nuw %struct.H5B2_hdr_t, ptr %62, i32 0, i32 1
  %64 = call i32 @H5B2__create_leaf(ptr noundef %60, ptr noundef %61, ptr noundef %63)
  %65 = icmp slt i32 %64, 0
  br i1 %65, label %66, label %85

66:                                               ; preds = %59
  br label %67

67:                                               ; preds = %66
  br label %68

68:                                               ; preds = %67
  br label %69

69:                                               ; preds = %68
  %70 = load i64, ptr @H5E_BTREE_g, align 8, !tbaa !19
  %71 = load i64, ptr @H5E_CANTINIT_g, align 8, !tbaa !19
  %72 = call i32 (ptr, ptr, i32, i64, i64, ptr, ...) @H5E_printf_stack(ptr noundef @.str, ptr noundef @__func__.H5B2_update, i32 noundef 311, i64 noundef %70, i64 noundef %71, ptr noundef @.str.10)
  br label %73

73:                                               ; preds = %69
  br label %74

74:                                               ; preds = %73
  store i8 1, ptr %12, align 1, !tbaa !15
  %75 = load i8, ptr %12, align 1, !tbaa !15, !range !17, !noundef !18
  %76 = trunc i8 %75 to i1
  %77 = zext i1 %76 to i8
  store i8 %77, ptr %12, align 1, !tbaa !15
  br label %78

78:                                               ; preds = %74
  br label %79

79:                                               ; preds = %78
  br label %80

80:                                               ; preds = %79
  store i32 -1, ptr %11, align 4, !tbaa !24
  br label %216

81:                                               ; No predecessors!
  br label %82

82:                                               ; preds = %81
  br label %83

83:                                               ; preds = %82
  br label %84

84:                                               ; preds = %83
  br label %85

85:                                               ; preds = %84, %59
  br label %86

86:                                               ; preds = %85, %43
  %87 = load ptr, ptr %9, align 8, !tbaa !13
  %88 = getelementptr inbounds nuw %struct.H5B2_hdr_t, ptr %87, i32 0, i32 6
  %89 = load i16, ptr %88, align 4, !tbaa !43
  %90 = zext i16 %89 to i32
  %91 = icmp sgt i32 %90, 0
  br i1 %91, label %92, label %125

92:                                               ; preds = %86
  %93 = load ptr, ptr %9, align 8, !tbaa !13
  %94 = load ptr, ptr %9, align 8, !tbaa !13
  %95 = getelementptr inbounds nuw %struct.H5B2_hdr_t, ptr %94, i32 0, i32 6
  %96 = load i16, ptr %95, align 4, !tbaa !43
  %97 = load ptr, ptr %9, align 8, !tbaa !13
  %98 = getelementptr inbounds nuw %struct.H5B2_hdr_t, ptr %97, i32 0, i32 1
  %99 = load ptr, ptr %9, align 8, !tbaa !13
  %100 = load ptr, ptr %6, align 8, !tbaa !10
  %101 = load ptr, ptr %7, align 8, !tbaa !10
  %102 = load ptr, ptr %8, align 8, !tbaa !10
  %103 = call i32 @H5B2__update_internal(ptr noundef %93, i16 noundef zeroext %96, ptr noundef null, ptr noundef %98, ptr noundef %10, i32 noundef 0, ptr noundef %99, ptr noundef %100, ptr noundef %101, ptr noundef %102)
  %104 = icmp slt i32 %103, 0
  br i1 %104, label %105, label %124

105:                                              ; preds = %92
  br label %106

106:                                              ; preds = %105
  br label %107

107:                                              ; preds = %106
  br label %108

108:                                              ; preds = %107
  %109 = load i64, ptr @H5E_BTREE_g, align 8, !tbaa !19
  %110 = load i64, ptr @H5E_CANTUPDATE_g, align 8, !tbaa !19
  %111 = call i32 (ptr, ptr, i32, i64, i64, ptr, ...) @H5E_printf_stack(ptr noundef @.str, ptr noundef @__func__.H5B2_update, i32 noundef 318, i64 noundef %109, i64 noundef %110, ptr noundef @.str.11)
  br label %112

112:                                              ; preds = %108
  br label %113

113:                                              ; preds = %112
  store i8 1, ptr %12, align 1, !tbaa !15
  %114 = load i8, ptr %12, align 1, !tbaa !15, !range !17, !noundef !18
  %115 = trunc i8 %114 to i1
  %116 = zext i1 %115 to i8
  store i8 %116, ptr %12, align 1, !tbaa !15
  br label %117

117:                                              ; preds = %113
  br label %118

118:                                              ; preds = %117
  br label %119

119:                                              ; preds = %118
  store i32 -1, ptr %11, align 4, !tbaa !24
  br label %216

120:                                              ; No predecessors!
  br label %121

121:                                              ; preds = %120
  br label %122

122:                                              ; preds = %121
  br label %123

123:                                              ; preds = %122
  br label %124

124:                                              ; preds = %123, %92
  br label %155

125:                                              ; preds = %86
  %126 = load ptr, ptr %9, align 8, !tbaa !13
  %127 = load ptr, ptr %9, align 8, !tbaa !13
  %128 = getelementptr inbounds nuw %struct.H5B2_hdr_t, ptr %127, i32 0, i32 1
  %129 = load ptr, ptr %9, align 8, !tbaa !13
  %130 = load ptr, ptr %6, align 8, !tbaa !10
  %131 = load ptr, ptr %7, align 8, !tbaa !10
  %132 = load ptr, ptr %8, align 8, !tbaa !10
  %133 = call i32 @H5B2__update_leaf(ptr noundef %126, ptr noundef %128, ptr noundef %10, i32 noundef 0, ptr noundef %129, ptr noundef %130, ptr noundef %131, ptr noundef %132)
  %134 = icmp slt i32 %133, 0
  br i1 %134, label %135, label %154

135:                                              ; preds = %125
  br label %136

136:                                              ; preds = %135
  br label %137

137:                                              ; preds = %136
  br label %138

138:                                              ; preds = %137
  %139 = load i64, ptr @H5E_BTREE_g, align 8, !tbaa !19
  %140 = load i64, ptr @H5E_CANTUPDATE_g, align 8, !tbaa !19
  %141 = call i32 (ptr, ptr, i32, i64, i64, ptr, ...) @H5E_printf_stack(ptr noundef @.str, ptr noundef @__func__.H5B2_update, i32 noundef 322, i64 noundef %139, i64 noundef %140, ptr noundef @.str.12)
  br label %142

142:                                              ; preds = %138
  br label %143

143:                                              ; preds = %142
  store i8 1, ptr %12, align 1, !tbaa !15
  %144 = load i8, ptr %12, align 1, !tbaa !15, !range !17, !noundef !18
  %145 = trunc i8 %144 to i1
  %146 = zext i1 %145 to i8
  store i8 %146, ptr %12, align 1, !tbaa !15
  br label %147

147:                                              ; preds = %143
  br label %148

148:                                              ; preds = %147
  br label %149

149:                                              ; preds = %148
  store i32 -1, ptr %11, align 4, !tbaa !24
  br label %216

150:                                              ; No predecessors!
  br label %151

151:                                              ; preds = %150
  br label %152

152:                                              ; preds = %151
  br label %153

153:                                              ; preds = %152
  br label %154

154:                                              ; preds = %153, %125
  br label %155

155:                                              ; preds = %154, %124
  %156 = load i32, ptr %10, align 4, !tbaa !24
  %157 = icmp eq i32 4, %156
  br i1 %157, label %158, label %183

158:                                              ; preds = %155
  %159 = load ptr, ptr %9, align 8, !tbaa !13
  %160 = load ptr, ptr %6, align 8, !tbaa !10
  %161 = call i32 @H5B2__insert(ptr noundef %159, ptr noundef %160)
  %162 = icmp slt i32 %161, 0
  br i1 %162, label %163, label %182

163:                                              ; preds = %158
  br label %164

164:                                              ; preds = %163
  br label %165

165:                                              ; preds = %164
  br label %166

166:                                              ; preds = %165
  %167 = load i64, ptr @H5E_BTREE_g, align 8, !tbaa !19
  %168 = load i64, ptr @H5E_CANTINSERT_g, align 8, !tbaa !19
  %169 = call i32 (ptr, ptr, i32, i64, i64, ptr, ...) @H5E_printf_stack(ptr noundef @.str, ptr noundef @__func__.H5B2_update, i32 noundef 331, i64 noundef %167, i64 noundef %168, ptr noundef @.str.9)
  br label %170

170:                                              ; preds = %166
  br label %171

171:                                              ; preds = %170
  store i8 1, ptr %12, align 1, !tbaa !15
  %172 = load i8, ptr %12, align 1, !tbaa !15, !range !17, !noundef !18
  %173 = trunc i8 %172 to i1
  %174 = zext i1 %173 to i8
  store i8 %174, ptr %12, align 1, !tbaa !15
  br label %175

175:                                              ; preds = %171
  br label %176

176:                                              ; preds = %175
  br label %177

177:                                              ; preds = %176
  store i32 -1, ptr %11, align 4, !tbaa !24
  br label %216

178:                                              ; No predecessors!
  br label %179

179:                                              ; preds = %178
  br label %180

180:                                              ; preds = %179
  br label %181

181:                                              ; preds = %180
  br label %182

182:                                              ; preds = %181, %158
  br label %215

183:                                              ; preds = %155
  %184 = load i32, ptr %10, align 4, !tbaa !24
  %185 = icmp eq i32 2, %184
  br i1 %185, label %189, label %186

186:                                              ; preds = %183
  %187 = load i32, ptr %10, align 4, !tbaa !24
  %188 = icmp eq i32 3, %187
  br i1 %188, label %189, label %213

189:                                              ; preds = %186, %183
  %190 = load ptr, ptr %9, align 8, !tbaa !13
  %191 = call i32 @H5B2__hdr_dirty(ptr noundef %190)
  %192 = icmp slt i32 %191, 0
  br i1 %192, label %193, label %212

193:                                              ; preds = %189
  br label %194

194:                                              ; preds = %193
  br label %195

195:                                              ; preds = %194
  br label %196

196:                                              ; preds = %195
  %197 = load i64, ptr @H5E_BTREE_g, align 8, !tbaa !19
  %198 = load i64, ptr @H5E_CANTMARKDIRTY_g, align 8, !tbaa !19
  %199 = call i32 (ptr, ptr, i32, i64, i64, ptr, ...) @H5E_printf_stack(ptr noundef @.str, ptr noundef @__func__.H5B2_update, i32 noundef 336, i64 noundef %197, i64 noundef %198, ptr noundef @.str.13)
  br label %200

200:                                              ; preds = %196
  br label %201

201:                                              ; preds = %200
  store i8 1, ptr %12, align 1, !tbaa !15
  %202 = load i8, ptr %12, align 1, !tbaa !15, !range !17, !noundef !18
  %203 = trunc i8 %202 to i1
  %204 = zext i1 %203 to i8
  store i8 %204, ptr %12, align 1, !tbaa !15
  br label %205

205:                                              ; preds = %201
  br label %206

206:                                              ; preds = %205
  br label %207

207:                                              ; preds = %206
  store i32 -1, ptr %11, align 4, !tbaa !24
  br label %216

208:                                              ; No predecessors!
  br label %209

209:                                              ; preds = %208
  br label %210

210:                                              ; preds = %209
  br label %211

211:                                              ; preds = %210
  br label %212

212:                                              ; preds = %211, %189
  br label %214

213:                                              ; preds = %186
  br label %214

214:                                              ; preds = %213, %212
  br label %215

215:                                              ; preds = %214, %182
  br label %216

216:                                              ; preds = %215, %207, %177, %149, %119, %80
  br label %217

217:                                              ; preds = %216, %35
  %218 = load i32, ptr %11, align 4, !tbaa !24
  call void @llvm.lifetime.end.p0(i64 1, ptr %12) #6
  call void @llvm.lifetime.end.p0(i64 4, ptr %11) #6
  call void @llvm.lifetime.end.p0(i64 4, ptr %10) #6
  call void @llvm.lifetime.end.p0(i64 8, ptr %9) #6
  ret i32 %218
}