; Function Attrs: nounwind uwtable
define range(i32 -1, 1) i32 @H5B2_update(ptr noundef readonly captures(none) %0, ptr noundef %1, ptr noundef %2, ptr noundef %3) local_unnamed_addr #0 {
  %5 = alloca i32, align 4
  call void @llvm.lifetime.start.p0(i64 4, ptr nonnull %5) #7
  store i32 0, ptr %5, align 4, !tbaa !36
  %6 = load i8, ptr @H5B2_init_g, align 1, !tbaa !3, !range !7, !noundef !8
  %7 = trunc nuw i8 %6 to i1
  %8 = load i8, ptr @H5_libterm_g, align 1, !range !7
  %9 = trunc nuw i8 %8 to i1
  %10 = select i1 %7, i1 true, i1 %9
  br i1 %10, label %11, label %.thread, !prof !9

.thread:                                          ; preds = %4
  store i8 1, ptr @H5B2_init_g, align 1, !tbaa !3
  br label %14

11:                                               ; preds = %4
  %12 = xor i1 %9, true
  %13 = select i1 %7, i1 true, i1 %12
  br i1 %13, label %14, label %64, !prof !10

14:                                               ; preds = %.thread, %11
  %15 = getelementptr inbounds nuw i8, ptr %0, i64 8
  %16 = load ptr, ptr %15, align 8, !tbaa !18
  %17 = load ptr, ptr %0, align 8, !tbaa !13
  %18 = getelementptr inbounds nuw i8, ptr %17, i64 288
  store ptr %16, ptr %18, align 8, !tbaa !19
  %19 = getelementptr inbounds nuw i8, ptr %17, i64 248
  %20 = load i64, ptr %19, align 8, !tbaa !37
  %.not = icmp eq i64 %20, -1
  br i1 %.not, label %21, label %28

21:                                               ; preds = %14
  %22 = tail call i32 @H5B2__create_leaf(ptr noundef nonnull %17, ptr noundef nonnull %17, ptr noundef nonnull %19) #7
  %23 = icmp slt i32 %22, 0
  br i1 %23, label %24, label %28

24:                                               ; preds = %21
  %25 = load i64, ptr @H5E_BTREE_g, align 8, !tbaa !11
  %26 = load i64, ptr @H5E_CANTINIT_g, align 8, !tbaa !11
  %27 = tail call i32 (ptr, ptr, i32, i64, i64, ptr, ...) @H5E_printf_stack(ptr noundef nonnull @.str, ptr noundef nonnull @__func__.H5B2_update, i32 noundef 311, i64 noundef %25, i64 noundef %26, ptr noundef nonnull @.str.10) #7
  br label %64

28:                                               ; preds = %21, %14
  %29 = getelementptr inbounds nuw i8, ptr %17, i64 284
  %30 = load i16, ptr %29, align 4, !tbaa !38
  %.not31 = icmp eq i16 %30, 0
  br i1 %.not31, label %38, label %31

31:                                               ; preds = %28
  %32 = call i32 @H5B2__update_internal(ptr noundef nonnull %17, i16 noundef zeroext %30, ptr noundef null, ptr noundef nonnull %19, ptr noundef nonnull %5, i32 noundef 0, ptr noundef nonnull %17, ptr noundef %1, ptr noundef %2, ptr noundef %3) #7
  %33 = icmp slt i32 %32, 0
  br i1 %33, label %34, label %45

34:                                               ; preds = %31
  %35 = load i64, ptr @H5E_BTREE_g, align 8, !tbaa !11
  %36 = load i64, ptr @H5E_CANTUPDATE_g, align 8, !tbaa !11
  %37 = call i32 (ptr, ptr, i32, i64, i64, ptr, ...) @H5E_printf_stack(ptr noundef nonnull @.str, ptr noundef nonnull @__func__.H5B2_update, i32 noundef 318, i64 noundef %35, i64 noundef %36, ptr noundef nonnull @.str.11) #7
  br label %64

38:                                               ; preds = %28
  %39 = call i32 @H5B2__update_leaf(ptr noundef nonnull %17, ptr noundef nonnull %19, ptr noundef nonnull %5, i32 noundef 0, ptr noundef nonnull %17, ptr noundef %1, ptr noundef %2, ptr noundef %3) #7
  %40 = icmp slt i32 %39, 0
  br i1 %40, label %41, label %45

41:                                               ; preds = %38
  %42 = load i64, ptr @H5E_BTREE_g, align 8, !tbaa !11
  %43 = load i64, ptr @H5E_CANTUPDATE_g, align 8, !tbaa !11
  %44 = call i32 (ptr, ptr, i32, i64, i64, ptr, ...) @H5E_printf_stack(ptr noundef nonnull @.str, ptr noundef nonnull @__func__.H5B2_update, i32 noundef 322, i64 noundef %42, i64 noundef %43, ptr noundef nonnull @.str.12) #7
  br label %64

45:                                               ; preds = %38, %31
  %46 = load i32, ptr %5, align 4, !tbaa !36
  %47 = icmp eq i32 %46, 4
  br i1 %47, label %48, label %55

48:                                               ; preds = %45
  %49 = call i32 @H5B2__insert(ptr noundef nonnull %17, ptr noundef %1) #7
  %50 = icmp slt i32 %49, 0
  br i1 %50, label %51, label %64

51:                                               ; preds = %48
  %52 = load i64, ptr @H5E_BTREE_g, align 8, !tbaa !11
  %53 = load i64, ptr @H5E_CANTINSERT_g, align 8, !tbaa !11
  %54 = call i32 (ptr, ptr, i32, i64, i64, ptr, ...) @H5E_printf_stack(ptr noundef nonnull @.str, ptr noundef nonnull @__func__.H5B2_update, i32 noundef 331, i64 noundef %52, i64 noundef %53, ptr noundef nonnull @.str.9) #7
  br label %64

55:                                               ; preds = %45
  %56 = and i32 %46, -2
  %or.cond = icmp eq i32 %56, 2
  br i1 %or.cond, label %57, label %64

57:                                               ; preds = %55
  %58 = call i32 @H5B2__hdr_dirty(ptr noundef nonnull %17) #7
  %59 = icmp slt i32 %58, 0
  br i1 %59, label %60, label %64

60:                                               ; preds = %57
  %61 = load i64, ptr @H5E_BTREE_g, align 8, !tbaa !11
  %62 = load i64, ptr @H5E_CANTMARKDIRTY_g, align 8, !tbaa !11
  %63 = call i32 (ptr, ptr, i32, i64, i64, ptr, ...) @H5E_printf_stack(ptr noundef nonnull @.str, ptr noundef nonnull @__func__.H5B2_update, i32 noundef 336, i64 noundef %61, i64 noundef %62, ptr noundef nonnull @.str.13) #7
  br label %64

64:                                               ; preds = %24, %34, %41, %51, %60, %57, %55, %48, %11
  %.0 = phi i32 [ -1, %34 ], [ -1, %51 ], [ 0, %48 ], [ -1, %60 ], [ 0, %57 ], [ 0, %55 ], [ -1, %41 ], [ -1, %24 ], [ 0, %11 ]
  call void @llvm.lifetime.end.p0(i64 4, ptr nonnull %5) #7
  ret i32 %.0
}